target datalayout = "e-m:e-p270:32:32-p271:32:32-p272:64:64-i64:64-i128:128-f80:128-n8:16:32:64-S128"
target triple = "x86_64-pc-linux-gnu"

%struct.Vec_Int_t_ = type { i32, i32, ptr }
%struct.Qbf_Man_t_ = type { ptr, i32, i32, i32, i32, ptr, ptr, ptr, ptr, ptr, ptr, i64, i64 }

@.str.10 = private unnamed_addr constant [2 x i8] c"\0A\00", align 1
@.str.25 = private unnamed_addr constant [3 x i8] c"%d\00", align 1
@.str.35 = private unnamed_addr constant [13 x i8] c"  Pattern   \00", align 1
@.str.36 = private unnamed_addr constant [12 x i8] c"  Var =%4d \00", align 1
@.str.37 = private unnamed_addr constant [7 x i8] c"UNSAT\0A\00", align 1

; Function Attrs: inlinehint nounwind uwtable
define internal i32 @Abc_LitNot(i32 noundef %0) #2 {
  %2 = alloca i32, align 4
  store i32 %0, ptr %2, align 4, !tbaa !8
  %3 = load i32, ptr %2, align 4, !tbaa !8
  %4 = xor i32 %3, 1
  ret i32 %4
}

; Function Attrs: inlinehint nounwind uwtable
define internal i32 @Abc_Var2Lit(i32 noundef %0, i32 noundef %1) #2 {
  %3 = alloca i32, align 4
  %4 = alloca i32, align 4
  store i32 %0, ptr %3, align 4, !tbaa !8
  store i32 %1, ptr %4, align 4, !tbaa !8
  %5 = load i32, ptr %3, align 4, !tbaa !8
  %6 = load i32, ptr %3, align 4, !tbaa !8
  %7 = add nsw i32 %5, %6
  %8 = load i32, ptr %4, align 4, !tbaa !8
  %9 = add nsw i32 %7, %8
  ret i32 %9
}

; Function Attrs: inlinehint nounwind uwtable
define internal i32 @Vec_IntEntry(ptr noundef %0, i32 noundef %1) #2 {
  %3 = alloca ptr, align 8
  %4 = alloca i32, align 4
  store ptr %0, ptr %3, align 8, !tbaa !10
  store i32 %1, ptr %4, align 4, !tbaa !8
  %5 = load ptr, ptr %3, align 8, !tbaa !10
  %6 = getelementptr inbounds nuw %struct.Vec_Int_t_, ptr %5, i32 0, i32 2
  %7 = load ptr, ptr %6, align 8, !tbaa !17
  %8 = load i32, ptr %4, align 4, !tbaa !8
  %9 = sext i32 %8 to i64
  %10 = getelementptr inbounds i32, ptr %7, i64 %9
  %11 = load i32, ptr %10, align 4, !tbaa !8
  ret i32 %11
}

; Function Attrs: inlinehint nounwind uwtable
define internal i32 @Vec_IntSize(ptr noundef %0) #2 {
  %2 = alloca ptr, align 8
  store ptr %0, ptr %2, align 8, !tbaa !10
  %3 = load ptr, ptr %2, align 8, !tbaa !10
  %4 = getelementptr inbounds nuw %struct.Vec_Int_t_, ptr %3, i32 0, i32 1
  %5 = load i32, ptr %4, align 4, !tbaa !14
  ret i32 %5
}

; Function Attrs: inlinehint nounwind uwtable
define internal void @Vec_IntPrintBinary(ptr noundef %0) #2 {
  %2 = alloca ptr, align 8
  %3 = alloca i32, align 4
  %4 = alloca i32, align 4
  store ptr %0, ptr %2, align 8, !tbaa !10
  call void @llvm.lifetime.start.p0(i64 4, ptr %3) #14
  call void @llvm.lifetime.start.p0(i64 4, ptr %4) #14
  store i32 0, ptr %3, align 4, !tbaa !8
  br label %5

5:                                                ; preds = %21, %1
  %6 = load i32, ptr %3, align 4, !tbaa !8
  %7 = load ptr, ptr %2, align 8, !tbaa !10
  %8 = call i32 @Vec_IntSize(ptr noundef %7)
  %9 = icmp slt i32 %6, %8
  br i1 %9, label %10, label %14

10:                                               ; preds = %5
  %11 = load ptr, ptr %2, align 8, !tbaa !10
  %12 = load i32, ptr %3, align 4, !tbaa !8
  %13 = call i32 @Vec_IntEntry(ptr noundef %11, i32 noundef %12)
  store i32 %13, ptr %4, align 4, !tbaa !8
  br label %14

14:                                               ; preds = %10, %5
  %15 = phi i1 [ false, %5 ], [ true, %10 ]
  br i1 %15, label %16, label %24

16:                                               ; preds = %14
  %17 = load i32, ptr %4, align 4, !tbaa !8
  %18 = icmp ne i32 %17, 0
  %19 = zext i1 %18 to i32
  %20 = call i32 (ptr, ...) @printf(ptr noundef @.str.25, i32 noundef %19)
  br label %21

21:                                               ; preds = %16
  %22 = load i32, ptr %3, align 4, !tbaa !8
  %23 = add nsw i32 %22, 1
  store i32 %23, ptr %3, align 4, !tbaa !8
  br label %5, !llvm.loop !139

24:                                               ; preds = %14
  call void @llvm.lifetime.end.p0(i64 4, ptr %4) #14
  call void @llvm.lifetime.end.p0(i64 4, ptr %3) #14
  ret void
}

; Function Attrs: nounwind uwtable
define void @Gia_QbfLearnConstraint(ptr noundef %0, ptr noundef %1) #0 {
  %3 = alloca ptr, align 8
  %4 = alloca ptr, align 8
  %5 = alloca i32, align 4
  %6 = alloca i32, align 4
  %7 = alloca i32, align 4
  %8 = alloca [2 x i32], align 4
  store ptr %0, ptr %3, align 8, !tbaa !104
  store ptr %1, ptr %4, align 8, !tbaa !10
  call void @llvm.lifetime.start.p0(i64 4, ptr %5) #14
  call void @llvm.lifetime.start.p0(i64 4, ptr %6) #14
  call void @llvm.lifetime.start.p0(i64 4, ptr %7) #14
  call void @llvm.lifetime.start.p0(i64 8, ptr %8) #14
  %9 = call i32 (ptr, ...) @printf(ptr noundef @.str.35)
  %10 = load ptr, ptr %4, align 8, !tbaa !10
  call void @Vec_IntPrintBinary(ptr noundef %10)
  %11 = call i32 (ptr, ...) @printf(ptr noundef @.str.10)
  store i32 0, ptr %5, align 4, !tbaa !8
  br label %12

12:                                               ; preds = %61, %2
  %13 = load i32, ptr %5, align 4, !tbaa !8
  %14 = load ptr, ptr %4, align 8, !tbaa !10
  %15 = call i32 @Vec_IntSize(ptr noundef %14)
  %16 = icmp slt i32 %13, %15
  br i1 %16, label %17, label %21

17:                                               ; preds = %12
  %18 = load ptr, ptr %4, align 8, !tbaa !10
  %19 = load i32, ptr %5, align 4, !tbaa !8
  %20 = call i32 @Vec_IntEntry(ptr noundef %18, i32 noundef %19)
  store i32 %20, ptr %7, align 4, !tbaa !8
  br label %21

21:                                               ; preds = %17, %12
  %22 = phi i1 [ false, %12 ], [ true, %17 ]
  br i1 %22, label %23, label %64

23:                                               ; preds = %21
  %24 = load i32, ptr %5, align 4, !tbaa !8
  %25 = load i32, ptr %7, align 4, !tbaa !8
  %26 = call i32 @Abc_Var2Lit(i32 noundef %24, i32 noundef %25)
  %27 = getelementptr inbounds [2 x i32], ptr %8, i64 0, i64 0
  store i32 %26, ptr %27, align 4, !tbaa !8
  %28 = load ptr, ptr %3, align 8, !tbaa !104
  %29 = getelementptr inbounds nuw %struct.Qbf_Man_t_, ptr %28, i32 0, i32 6
  %30 = load ptr, ptr %29, align 8, !tbaa !114
  %31 = getelementptr inbounds [2 x i32], ptr %8, i64 0, i64 0
  %32 = getelementptr inbounds [2 x i32], ptr %8, i64 0, i64 0
  %33 = getelementptr inbounds i32, ptr %32, i64 1
  %34 = call i32 @sat_solver_solve(ptr noundef %30, ptr noundef %31, ptr noundef %33, i64 noundef 0, i64 noundef 0, i64 noundef 0, i64 noundef 0)
  store i32 %34, ptr %6, align 4, !tbaa !8
  %35 = load i32, ptr %5, align 4, !tbaa !8
  %36 = call i32 (ptr, ...) @printf(ptr noundef @.str.36, i32 noundef %35)
  %37 = load i32, ptr %6, align 4, !tbaa !8
  %38 = icmp ne i32 %37, 1
  br i1 %38, label %39, label %52

39:                                               ; preds = %23
  %40 = call i32 (ptr, ...) @printf(ptr noundef @.str.37)
  %41 = getelementptr inbounds [2 x i32], ptr %8, i64 0, i64 0
  %42 = load i32, ptr %41, align 4, !tbaa !8
  %43 = call i32 @Abc_LitNot(i32 noundef %42)
  %44 = getelementptr inbounds [2 x i32], ptr %8, i64 0, i64 0
  store i32 %43, ptr %44, align 4, !tbaa !8
  %45 = load ptr, ptr %3, align 8, !tbaa !104
  %46 = getelementptr inbounds nuw %struct.Qbf_Man_t_, ptr %45, i32 0, i32 6
  %47 = load ptr, ptr %46, align 8, !tbaa !114
  %48 = getelementptr inbounds [2 x i32], ptr %8, i64 0, i64 0
  %49 = getelementptr inbounds [2 x i32], ptr %8, i64 0, i64 0
  %50 = getelementptr inbounds i32, ptr %49, i64 1
  %51 = call i32 @sat_solver_addclause(ptr noundef %47, ptr noundef %48, ptr noundef %50)
  store i32 %51, ptr %6, align 4, !tbaa !8
  br label %61

52:                                               ; preds = %23
  %53 = load ptr, ptr %3, align 8, !tbaa !104
  %54 = load ptr, ptr %3, align 8, !tbaa !104
  %55 = getelementptr inbounds nuw %struct.Qbf_Man_t_, ptr %54, i32 0, i32 10
  %56 = load ptr, ptr %55, align 8, !tbaa !118
  call void @Gia_QbfOnePattern(ptr noundef %53, ptr noundef %56)
  %57 = load ptr, ptr %3, align 8, !tbaa !104
  %58 = getelementptr inbounds nuw %struct.Qbf_Man_t_, ptr %57, i32 0, i32 10
  %59 = load ptr, ptr %58, align 8, !tbaa !118
  call void @Vec_IntPrintBinary(ptr noundef %59)
  %60 = call i32 (ptr, ...) @printf(ptr noundef @.str.10)
  br label %61

61:                                               ; preds = %52, %39
  %62 = load i32, ptr %5, align 4, !tbaa !8
  %63 = add nsw i32 %62, 1
  store i32 %63, ptr %5, align 4, !tbaa !8
  br label %12, !llvm.loop !143

64:                                               ; preds = %21
  call void @llvm.lifetime.end.p0(i64 8, ptr %8) #14
  call void @llvm.lifetime.end.p0(i64 4, ptr %7) #14
  call void @llvm.lifetime.end.p0(i64 4, ptr %6) #14
  call void @llvm.lifetime.end.p0(i64 4, ptr %5) #14
  ret void
}