; Function Attrs: nounwind uwtable
define void @Gia_QbfLearnConstraint(ptr noundef readonly captures(none) %0, ptr noundef readonly captures(none) %1) local_unnamed_addr #0 {
  %3 = alloca [2 x i32], align 4
  call void @llvm.lifetime.start.p0(i64 8, ptr nonnull %3) #29
  %4 = tail call i32 (ptr, ...) @printf(ptr noundef nonnull dereferenceable(1) @.str.35)
  %5 = getelementptr i8, ptr %1, i64 4
  %.val6.i = load i32, ptr %5, align 4, !tbaa !11
  %6 = icmp sgt i32 %.val6.i, 0
  br i1 %6, label %.lr.ph.i, label %Vec_IntPrintBinary.exit

.lr.ph.i:                                         ; preds = %2
  %7 = getelementptr i8, ptr %1, i64 8
  br label %8

8:                                                ; preds = %8, %.lr.ph.i
  %indvars.iv.i = phi i64 [ 0, %.lr.ph.i ], [ %indvars.iv.next.i, %8 ]
  %.val5.i = load ptr, ptr %7, align 8, !tbaa !10
  %9 = getelementptr inbounds nuw i32, ptr %.val5.i, i64 %indvars.iv.i
  %10 = load i32, ptr %9, align 4, !tbaa !12
  %11 = icmp ne i32 %10, 0
  %12 = zext i1 %11 to i32
  %13 = tail call i32 (ptr, ...) @printf(ptr noundef nonnull dereferenceable(1) @.str.25, i32 noundef %12)
  %indvars.iv.next.i = add nuw nsw i64 %indvars.iv.i, 1
  %.val.i = load i32, ptr %5, align 4, !tbaa !11
  %14 = sext i32 %.val.i to i64
  %15 = icmp slt i64 %indvars.iv.next.i, %14
  br i1 %15, label %8, label %Vec_IntPrintBinary.exit, !llvm.loop !130

Vec_IntPrintBinary.exit:                          ; preds = %8, %2
  %putchar = tail call i32 @putchar(i32 10)
  %.val23 = load i32, ptr %5, align 4, !tbaa !11
  %16 = icmp sgt i32 %.val23, 0
  br i1 %16, label %.lr.ph, label %.critedge

.lr.ph:                                           ; preds = %Vec_IntPrintBinary.exit
  %17 = getelementptr i8, ptr %1, i64 8
  %18 = getelementptr inbounds nuw i8, ptr %0, i64 32
  %19 = getelementptr inbounds nuw i8, ptr %3, i64 4
  %20 = getelementptr inbounds nuw i8, ptr %0, i64 64
  br label %21

21:                                               ; preds = %.lr.ph, %49
  %indvars.iv = phi i64 [ 0, %.lr.ph ], [ %indvars.iv.next, %49 ]
  %.val15 = load ptr, ptr %17, align 8, !tbaa !10
  %22 = getelementptr inbounds nuw i32, ptr %.val15, i64 %indvars.iv
  %23 = load i32, ptr %22, align 4, !tbaa !12
  %indvars.iv.tr = trunc i64 %indvars.iv to i32
  %24 = shl i32 %indvars.iv.tr, 1
  %25 = add nsw i32 %23, %24
  store i32 %25, ptr %3, align 4, !tbaa !12
  %26 = load ptr, ptr %18, align 8, !tbaa !105
  %27 = call i32 @sat_solver_solve(ptr noundef %26, ptr noundef nonnull %3, ptr noundef nonnull %19, i64 noundef 0, i64 noundef 0, i64 noundef 0, i64 noundef 0) #29
  %28 = trunc nuw nsw i64 %indvars.iv to i32
  %29 = call i32 (ptr, ...) @printf(ptr noundef nonnull dereferenceable(1) @.str.36, i32 noundef %28)
  %.not = icmp eq i32 %27, 1
  br i1 %.not, label %35, label %30

30:                                               ; preds = %21
  %puts = call i32 @puts(ptr nonnull dereferenceable(1) @str)
  %31 = load i32, ptr %3, align 4, !tbaa !12
  %32 = xor i32 %31, 1
  store i32 %32, ptr %3, align 4, !tbaa !12
  %33 = load ptr, ptr %18, align 8, !tbaa !105
  %34 = call i32 @sat_solver_addclause(ptr noundef %33, ptr noundef nonnull %3, ptr noundef nonnull %19) #29
  br label %49

35:                                               ; preds = %21
  %36 = load ptr, ptr %20, align 8, !tbaa !109
  call void @Gia_QbfOnePattern(ptr noundef nonnull %0, ptr noundef %36)
  %37 = load ptr, ptr %20, align 8, !tbaa !109
  %38 = getelementptr i8, ptr %37, i64 4
  %.val6.i16 = load i32, ptr %38, align 4, !tbaa !11
  %39 = icmp sgt i32 %.val6.i16, 0
  br i1 %39, label %.lr.ph.i17, label %Vec_IntPrintBinary.exit22

.lr.ph.i17:                                       ; preds = %35
  %40 = getelementptr i8, ptr %37, i64 8
  br label %41

41:                                               ; preds = %41, %.lr.ph.i17
  %indvars.iv.i18 = phi i64 [ 0, %.lr.ph.i17 ], [ %indvars.iv.next.i20, %41 ]
  %.val5.i19 = load ptr, ptr %40, align 8, !tbaa !10
  %42 = getelementptr inbounds nuw i32, ptr %.val5.i19, i64 %indvars.iv.i18
  %43 = load i32, ptr %42, align 4, !tbaa !12
  %44 = icmp ne i32 %43, 0
  %45 = zext i1 %44 to i32
  %46 = call i32 (ptr, ...) @printf(ptr noundef nonnull dereferenceable(1) @.str.25, i32 noundef %45)
  %indvars.iv.next.i20 = add nuw nsw i64 %indvars.iv.i18, 1
  %.val.i21 = load i32, ptr %38, align 4, !tbaa !11
  %47 = sext i32 %.val.i21 to i64
  %48 = icmp slt i64 %indvars.iv.next.i20, %47
  br i1 %48, label %41, label %Vec_IntPrintBinary.exit22, !llvm.loop !130

Vec_IntPrintBinary.exit22:                        ; preds = %41, %35
  %putchar14 = call i32 @putchar(i32 10)
  br label %49

49:                                               ; preds = %Vec_IntPrintBinary.exit22, %30
  %indvars.iv.next = add nuw nsw i64 %indvars.iv, 1
  %.val = load i32, ptr %5, align 4, !tbaa !11
  %50 = sext i32 %.val to i64
  %51 = icmp slt i64 %indvars.iv.next, %50
  br i1 %51, label %21, label %.critedge, !llvm.loop !134

.critedge:                                        ; preds = %49, %Vec_IntPrintBinary.exit
  call void @llvm.lifetime.end.p0(i64 8, ptr nonnull %3) #29
  ret void
}